target datalayout = "e-m:e-p270:32:32-p271:32:32-p272:64:64-i64:64-i128:128-f80:128-n8:16:32:64-S128"
target triple = "x86_64-pc-linux-gnu"

%struct._N_VectorContent_Serial = type { i64, i32, ptr }
%struct._generic_N_Vector = type { ptr, ptr }

; Function Attrs: nounwind uwtable
define double @N_VDotProd_Serial(ptr noundef %0, ptr noundef %1) #0 {
  %3 = alloca ptr, align 8
  %4 = alloca ptr, align 8
  %5 = alloca i64, align 8
  %6 = alloca i64, align 8
  %7 = alloca double, align 8
  %8 = alloca ptr, align 8
  %9 = alloca ptr, align 8
  store ptr %0, ptr %3, align 8, !tbaa !7
  store ptr %1, ptr %4, align 8, !tbaa !7
  call void @llvm.lifetime.start.p0(i64 8, ptr %5) #6
  call void @llvm.lifetime.start.p0(i64 8, ptr %6) #6
  call void @llvm.lifetime.start.p0(i64 8, ptr %7) #6
  call void @llvm.lifetime.start.p0(i64 8, ptr %8) #6
  call void @llvm.lifetime.start.p0(i64 8, ptr %9) #6
  store double 0.000000e+00, ptr %7, align 8, !tbaa !52
  store ptr null, ptr %9, align 8, !tbaa !49
  store ptr null, ptr %8, align 8, !tbaa !49
  %10 = load ptr, ptr %3, align 8, !tbaa !7
  %11 = getelementptr inbounds nuw %struct._generic_N_Vector, ptr %10, i32 0, i32 0
  %12 = load ptr, ptr %11, align 8, !tbaa !46
  %13 = getelementptr inbounds nuw %struct._N_VectorContent_Serial, ptr %12, i32 0, i32 0
  %14 = load i64, ptr %13, align 8, !tbaa !40
  store i64 %14, ptr %6, align 8, !tbaa !3
  %15 = load ptr, ptr %3, align 8, !tbaa !7
  %16 = getelementptr inbounds nuw %struct._generic_N_Vector, ptr %15, i32 0, i32 0
  %17 = load ptr, ptr %16, align 8, !tbaa !46
  %18 = getelementptr inbounds nuw %struct._N_VectorContent_Serial, ptr %17, i32 0, i32 2
  %19 = load ptr, ptr %18, align 8, !tbaa !45
  store ptr %19, ptr %8, align 8, !tbaa !49
  %20 = load ptr, ptr %4, align 8, !tbaa !7
  %21 = getelementptr inbounds nuw %struct._generic_N_Vector, ptr %20, i32 0, i32 0
  %22 = load ptr, ptr %21, align 8, !tbaa !46
  %23 = getelementptr inbounds nuw %struct._N_VectorContent_Serial, ptr %22, i32 0, i32 2
  %24 = load ptr, ptr %23, align 8, !tbaa !45
  store ptr %24, ptr %9, align 8, !tbaa !49
  store i64 0, ptr %5, align 8, !tbaa !3
  br label %25

25:                                               ; preds = %40, %2
  %26 = load i64, ptr %5, align 8, !tbaa !3
  %27 = load i64, ptr %6, align 8, !tbaa !3
  %28 = icmp slt i64 %26, %27
  br i1 %28, label %29, label %43

29:                                               ; preds = %25
  %30 = load ptr, ptr %8, align 8, !tbaa !49
  %31 = load i64, ptr %5, align 8, !tbaa !3
  %32 = getelementptr inbounds double, ptr %30, i64 %31
  %33 = load double, ptr %32, align 8, !tbaa !52
  %34 = load ptr, ptr %9, align 8, !tbaa !49
  %35 = load i64, ptr %5, align 8, !tbaa !3
  %36 = getelementptr inbounds double, ptr %34, i64 %35
  %37 = load double, ptr %36, align 8, !tbaa !52
  %38 = load double, ptr %7, align 8, !tbaa !52
  %39 = call double @llvm.fmuladd.f64(double %33, double %37, double %38)
  store double %39, ptr %7, align 8, !tbaa !52
  br label %40

40:                                               ; preds = %29
  %41 = load i64, ptr %5, align 8, !tbaa !3
  %42 = add nsw i64 %41, 1
  store i64 %42, ptr %5, align 8, !tbaa !3
  br label %25, !llvm.loop !64

43:                                               ; preds = %25
  %44 = load double, ptr %7, align 8, !tbaa !52
  call void @llvm.lifetime.end.p0(i64 8, ptr %9) #6
  call void @llvm.lifetime.end.p0(i64 8, ptr %8) #6
  call void @llvm.lifetime.end.p0(i64 8, ptr %7) #6
  call void @llvm.lifetime.end.p0(i64 8, ptr %6) #6
  call void @llvm.lifetime.end.p0(i64 8, ptr %5) #6
  ret double %44
}