; Function Attrs: nofree norecurse nosync nounwind memory(read, inaccessiblemem: none) uwtable
define double @N_VDotProd_Serial(ptr noundef readonly captures(none) %0, ptr noundef readonly captures(none) %1) #10 {
  %3 = load ptr, ptr %0, align 8, !tbaa !39
  %4 = load i64, ptr %3, align 8, !tbaa !32
  %5 = getelementptr inbounds nuw i8, ptr %3, i64 16
  %6 = load ptr, ptr %5, align 8, !tbaa !38
  %7 = load ptr, ptr %1, align 8, !tbaa !39
  %8 = getelementptr inbounds nuw i8, ptr %7, i64 16
  %9 = load ptr, ptr %8, align 8, !tbaa !38
  %10 = icmp sgt i64 %4, 0
  br i1 %10, label %.lr.ph, label %._crit_edge

.lr.ph:                                           ; preds = %2, %.lr.ph
  %.013 = phi double [ %15, %.lr.ph ], [ 0.000000e+00, %2 ]
  %.01112 = phi i64 [ %16, %.lr.ph ], [ 0, %2 ]
  %11 = getelementptr inbounds nuw double, ptr %6, i64 %.01112
  %12 = load double, ptr %11, align 8, !tbaa !44
  %13 = getelementptr inbounds nuw double, ptr %9, i64 %.01112
  %14 = load double, ptr %13, align 8, !tbaa !44
  %15 = tail call double @llvm.fmuladd.f64(double %12, double %14, double %.013)
  %16 = add nuw nsw i64 %.01112, 1
  %exitcond.not = icmp eq i64 %16, %4
  br i1 %exitcond.not, label %._crit_edge, label %.lr.ph, !llvm.loop !67

._crit_edge:                                      ; preds = %.lr.ph, %2
  %.0.lcssa = phi double [ 0.000000e+00, %2 ], [ %15, %.lr.ph ]
  ret double %.0.lcssa
}